target datalayout = "e-m:e-p270:32:32-p271:32:32-p272:64:64-i64:64-i128:128-f80:128-n8:16:32:64-S128"
target triple = "x86_64-pc-linux-gnu"

%struct.t_filenm = type { i32, ptr, ptr, i64, %"class.std::vector" }
%"class.std::vector" = type { %"struct.std::_Vector_base" }
%"struct.std::_Vector_base" = type { %"struct.std::_Vector_base<std::__cxx11::basic_string<char>, std::allocator<std::__cxx11::basic_string<char>>>::_Vector_impl" }
%"struct.std::_Vector_base<std::__cxx11::basic_string<char>, std::allocator<std::__cxx11::basic_string<char>>>::_Vector_impl" = type { %"struct.std::_Vector_base<std::__cxx11::basic_string<char>, std::allocator<std::__cxx11::basic_string<char>>>::_Vector_impl_data" }
%"struct.std::_Vector_base<std::__cxx11::basic_string<char>, std::allocator<std::__cxx11::basic_string<char>>>::_Vector_impl_data" = type { ptr, ptr, ptr }
%"class.std::__cxx11::basic_string" = type { %"struct.std::__cxx11::basic_string<char>::_Alloc_hider", i64, %union.anon }
%"struct.std::__cxx11::basic_string<char>::_Alloc_hider" = type { ptr }
%union.anon = type { i64, [8 x i8] }
%class.anon.7 = type { i8 }

@.str.2 = private unnamed_addr constant [128 x i8] c"generated/home/dtcxzyw/WorkSpace/Projects/compilers/llvm-opt-benchmark/bench/gromacs/gromacs/src/gromacs/commandline/filenm.cpp\00", align 1
@.str.3 = private unnamed_addr constant [6 x i8] c"false\00", align 1
@.str.6 = private unnamed_addr constant [44 x i8] c"ftp2fn should be called with a valid option\00", align 1
@"__PRETTY_FUNCTION__._ZZ6ftp2fniiPK8t_filenmENK3$_0clEv" = private unnamed_addr constant [79 x i8] c"auto ftp2fn(int, int, const t_filenm *)::(anonymous class)::operator()() const\00", align 1

; Function Attrs: mustprogress uwtable
define internal void @"_ZZ6ftp2fniiPK8t_filenmENK3$_0clEv"(ptr noundef nonnull align 1 dereferenceable(1) %0) #0 align 2 {
  %2 = alloca ptr, align 8
  store ptr %0, ptr %2, align 8
  call void @_ZN3gmx8internal13assertHandlerEPKcS2_S2_S2_i(ptr noundef @.str.3, ptr noundef @.str.6, ptr noundef @"__PRETTY_FUNCTION__._ZZ6ftp2fniiPK8t_filenmENK3$_0clEv", ptr noundef @.str.2, i32 noundef 132) #10
  unreachable
}

; Function Attrs: mustprogress nounwind uwtable
define linkonce_odr noundef nonnull align 8 dereferenceable(32) ptr @_ZNKSt6vectorINSt7__cxx1112basic_stringIcSt11char_traitsIcESaIcEEESaIS5_EEixEm(ptr noundef nonnull align 8 dereferenceable(24) %0, i64 noundef %1) #1 comdat align 2 {
  %3 = alloca ptr, align 8
  %4 = alloca i64, align 8
  store ptr %0, ptr %3, align 8
  store i64 %1, ptr %4, align 8
  %5 = load ptr, ptr %3, align 8
  %6 = getelementptr inbounds %"struct.std::_Vector_base", ptr %5, i32 0, i32 0
  %7 = getelementptr inbounds %"struct.std::_Vector_base<std::__cxx11::basic_string<char>, std::allocator<std::__cxx11::basic_string<char>>>::_Vector_impl_data", ptr %6, i32 0, i32 0
  %8 = load ptr, ptr %7, align 8
  %9 = load i64, ptr %4, align 8
  %10 = getelementptr inbounds %"class.std::__cxx11::basic_string", ptr %8, i64 %9
  ret ptr %10
}

; Function Attrs: mustprogress uwtable
define noundef ptr @_Z6ftp2fniiPK8t_filenm(i32 noundef %0, i32 noundef %1, ptr noundef %2) #0 {
  %4 = alloca ptr, align 8
  %5 = alloca i32, align 4
  %6 = alloca i32, align 4
  %7 = alloca ptr, align 8
  %8 = alloca i32, align 4
  %9 = alloca %class.anon.7, align 1
  store i32 %0, ptr %5, align 4
  store i32 %1, ptr %6, align 4
  store ptr %2, ptr %7, align 8
  store i32 0, ptr %8, align 4
  br label %10

10:                                               ; preds = %32, %3
  %11 = load i32, ptr %8, align 4
  %12 = load i32, ptr %6, align 4
  %13 = icmp slt i32 %11, %12
  br i1 %13, label %14, label %35

14:                                               ; preds = %10
  %15 = load i32, ptr %5, align 4
  %16 = load ptr, ptr %7, align 8
  %17 = load i32, ptr %8, align 4
  %18 = sext i32 %17 to i64
  %19 = getelementptr inbounds %struct.t_filenm, ptr %16, i64 %18
  %20 = getelementptr inbounds %struct.t_filenm, ptr %19, i32 0, i32 0
  %21 = load i32, ptr %20, align 8
  %22 = icmp eq i32 %15, %21
  br i1 %22, label %23, label %31

23:                                               ; preds = %14
  %24 = load ptr, ptr %7, align 8
  %25 = load i32, ptr %8, align 4
  %26 = sext i32 %25 to i64
  %27 = getelementptr inbounds %struct.t_filenm, ptr %24, i64 %26
  %28 = getelementptr inbounds %struct.t_filenm, ptr %27, i32 0, i32 4
  %29 = call noundef nonnull align 8 dereferenceable(32) ptr @_ZNKSt6vectorINSt7__cxx1112basic_stringIcSt11char_traitsIcESaIcEEESaIS5_EEixEm(ptr noundef nonnull align 8 dereferenceable(24) %28, i64 noundef 0) #8
  %30 = call noundef ptr @_ZNKSt7__cxx1112basic_stringIcSt11char_traitsIcESaIcEE5c_strEv(ptr noundef nonnull align 8 dereferenceable(32) %29) #8
  store ptr %30, ptr %4, align 8
  br label %36

31:                                               ; preds = %14
  br label %32

32:                                               ; preds = %31
  %33 = load i32, ptr %8, align 4
  %34 = add nsw i32 %33, 1
  store i32 %34, ptr %8, align 4
  br label %10, !llvm.loop !7

35:                                               ; preds = %10
  call void @"_ZZ6ftp2fniiPK8t_filenmENK3$_0clEv"(ptr noundef nonnull align 1 dereferenceable(1) %9)
  store ptr null, ptr %4, align 8
  br label %36

36:                                               ; preds = %35, %23
  %37 = load ptr, ptr %4, align 8
  ret ptr %37
}