; Function Attrs: mustprogress uwtable
define noundef ptr @_Z6ftp2fniiPK8t_filenm(i32 noundef %0, i32 noundef %1, ptr nocapture noundef readonly %2) local_unnamed_addr #0 {
  %4 = icmp sgt i32 %1, 0
  br i1 %4, label %.lr.ph.preheader, label %._crit_edge

.lr.ph.preheader:                                 ; preds = %3
  %wide.trip.count = zext nneg i32 %1 to i64
  br label %.lr.ph

5:                                                ; preds = %.lr.ph
  %indvars.iv.next = add nuw nsw i64 %indvars.iv, 1
  %exitcond.not = icmp eq i64 %indvars.iv.next, %wide.trip.count
  br i1 %exitcond.not, label %._crit_edge, label %.lr.ph, !llvm.loop !7

.lr.ph:                                           ; preds = %.lr.ph.preheader, %5
  %indvars.iv = phi i64 [ 0, %.lr.ph.preheader ], [ %indvars.iv.next, %5 ]
  %6 = getelementptr inbounds %struct.t_filenm, ptr %2, i64 %indvars.iv
  %7 = load i32, ptr %6, align 8
  %8 = icmp eq i32 %7, %0
  br i1 %8, label %9, label %5

9:                                                ; preds = %.lr.ph
  %10 = getelementptr inbounds i8, ptr %6, i64 32
  %11 = load ptr, ptr %10, align 8
  %12 = tail call noundef ptr @_ZNKSt7__cxx1112basic_stringIcSt11char_traitsIcESaIcEE5c_strEv(ptr noundef nonnull align 8 dereferenceable(32) %11) #13
  ret ptr %12

._crit_edge:                                      ; preds = %5, %3
  tail call void @_ZN3gmx8internal13assertHandlerEPKcS2_S2_S2_i(ptr noundef nonnull @.str.3, ptr noundef nonnull @.str.6, ptr noundef nonnull @"__PRETTY_FUNCTION__._ZZ6ftp2fniiPK8t_filenmENK3$_0clEv", ptr noundef nonnull @.str.2, i32 noundef 132) #11
  unreachable
}